target datalayout = "e-m:e-p270:32:32-p271:32:32-p272:64:64-i64:64-i128:128-f80:128-n8:16:32:64-S128"
target triple = "x86_64-pc-linux-gnu"

%struct.archive_read = type { %struct.archive, ptr, i32, i64, i64, %struct.archive_read_client, [16 x %struct.archive_read_filter_bidder], ptr, i32, i64, i32, i32, [16 x %struct.archive_format_descriptor], ptr, ptr, ptr, %struct.anon }
%struct.archive = type { i32, i32, ptr, i32, ptr, i32, i32, ptr, %struct.archive_string, ptr, i32, i32, ptr, ptr, i64, i64, i64, i8, i64 }
%struct.archive_string = type { ptr, i64, i64 }
%struct.archive_read_client = type { ptr, ptr, ptr, ptr, ptr, ptr, i32, i32, i64, ptr }
%struct.archive_read_filter_bidder = type { ptr, ptr, ptr }
%struct.archive_format_descriptor = type { ptr, ptr, ptr, ptr, ptr, ptr, ptr, ptr, ptr, ptr, ptr }
%struct.anon = type { ptr, ptr, i32, ptr, ptr }
%struct.warc_s = type { i64, i64, i64, %struct.warc_strbuf_t, i32, %struct.archive_string }
%struct.warc_strbuf_t = type { i64, ptr }

; Function Attrs: nounwind uwtable
define internal i32 @_warc_read(ptr noundef %0, ptr noundef %1, ptr noundef %2, ptr noundef %3) #0 {
  %5 = alloca i32, align 4
  %6 = alloca ptr, align 8
  %7 = alloca ptr, align 8
  %8 = alloca ptr, align 8
  %9 = alloca ptr, align 8
  %10 = alloca ptr, align 8
  %11 = alloca ptr, align 8
  %12 = alloca i64, align 8
  %13 = alloca i32, align 4
  store ptr %0, ptr %6, align 8, !tbaa !9
  store ptr %1, ptr %7, align 8, !tbaa !49
  store ptr %2, ptr %8, align 8, !tbaa !50
  store ptr %3, ptr %9, align 8, !tbaa !50
  call void @llvm.lifetime.start.p0(i64 8, ptr %10) #10
  %14 = load ptr, ptr %6, align 8, !tbaa !9
  %15 = getelementptr inbounds nuw %struct.archive_read, ptr %14, i32 0, i32 13
  %16 = load ptr, ptr %15, align 8, !tbaa !21
  %17 = getelementptr inbounds nuw %struct.archive_format_descriptor, ptr %16, i32 0, i32 0
  %18 = load ptr, ptr %17, align 8, !tbaa !35
  store ptr %18, ptr %10, align 8, !tbaa !13
  call void @llvm.lifetime.start.p0(i64 8, ptr %11) #10
  call void @llvm.lifetime.start.p0(i64 8, ptr %12) #10
  %19 = load ptr, ptr %10, align 8, !tbaa !13
  %20 = getelementptr inbounds nuw %struct.warc_s, ptr %19, i32 0, i32 1
  %21 = load i64, ptr %20, align 8, !tbaa !42
  %22 = load ptr, ptr %10, align 8, !tbaa !13
  %23 = getelementptr inbounds nuw %struct.warc_s, ptr %22, i32 0, i32 0
  %24 = load i64, ptr %23, align 8, !tbaa !41
  %25 = icmp uge i64 %21, %24
  br i1 %25, label %26, label %37

26:                                               ; preds = %4
  br label %27

27:                                               ; preds = %62, %26
  %28 = load ptr, ptr %7, align 8, !tbaa !49
  store ptr null, ptr %28, align 8, !tbaa !49
  %29 = load ptr, ptr %8, align 8, !tbaa !50
  store i64 0, ptr %29, align 8, !tbaa !17
  %30 = load ptr, ptr %10, align 8, !tbaa !13
  %31 = getelementptr inbounds nuw %struct.warc_s, ptr %30, i32 0, i32 1
  %32 = load i64, ptr %31, align 8, !tbaa !42
  %33 = add i64 %32, 4
  %34 = load ptr, ptr %9, align 8, !tbaa !50
  store i64 %33, ptr %34, align 8, !tbaa !17
  %35 = load ptr, ptr %10, align 8, !tbaa !13
  %36 = getelementptr inbounds nuw %struct.warc_s, ptr %35, i32 0, i32 2
  store i64 0, ptr %36, align 8, !tbaa !52
  store i32 1, ptr %5, align 4
  store i32 1, ptr %13, align 4
  br label %100

37:                                               ; preds = %4
  %38 = load ptr, ptr %10, align 8, !tbaa !13
  %39 = getelementptr inbounds nuw %struct.warc_s, ptr %38, i32 0, i32 2
  %40 = load i64, ptr %39, align 8, !tbaa !52
  %41 = icmp ne i64 %40, 0
  br i1 %41, label %42, label %50

42:                                               ; preds = %37
  %43 = load ptr, ptr %6, align 8, !tbaa !9
  %44 = load ptr, ptr %10, align 8, !tbaa !13
  %45 = getelementptr inbounds nuw %struct.warc_s, ptr %44, i32 0, i32 2
  %46 = load i64, ptr %45, align 8, !tbaa !52
  %47 = call i64 @__archive_read_consume(ptr noundef %43, i64 noundef %46)
  %48 = load ptr, ptr %10, align 8, !tbaa !13
  %49 = getelementptr inbounds nuw %struct.warc_s, ptr %48, i32 0, i32 2
  store i64 0, ptr %49, align 8, !tbaa !52
  br label %50

50:                                               ; preds = %42, %37
  %51 = load ptr, ptr %6, align 8, !tbaa !9
  %52 = call ptr @__archive_read_ahead(ptr noundef %51, i64 noundef 1, ptr noundef %12)
  store ptr %52, ptr %11, align 8, !tbaa !15
  %53 = load i64, ptr %12, align 8, !tbaa !17
  %54 = icmp slt i64 %53, 0
  br i1 %54, label %55, label %59

55:                                               ; preds = %50
  %56 = load ptr, ptr %8, align 8, !tbaa !50
  store i64 0, ptr %56, align 8, !tbaa !17
  %57 = load i64, ptr %12, align 8, !tbaa !17
  %58 = trunc i64 %57 to i32
  store i32 %58, ptr %5, align 4
  store i32 1, ptr %13, align 4
  br label %100

59:                                               ; preds = %50
  %60 = load i64, ptr %12, align 8, !tbaa !17
  %61 = icmp eq i64 %60, 0
  br i1 %61, label %62, label %63

62:                                               ; preds = %59
  br label %27

63:                                               ; preds = %59
  %64 = load i64, ptr %12, align 8, !tbaa !17
  %65 = load ptr, ptr %10, align 8, !tbaa !13
  %66 = getelementptr inbounds nuw %struct.warc_s, ptr %65, i32 0, i32 0
  %67 = load i64, ptr %66, align 8, !tbaa !41
  %68 = load ptr, ptr %10, align 8, !tbaa !13
  %69 = getelementptr inbounds nuw %struct.warc_s, ptr %68, i32 0, i32 1
  %70 = load i64, ptr %69, align 8, !tbaa !42
  %71 = sub i64 %67, %70
  %72 = icmp ugt i64 %64, %71
  br i1 %72, label %73, label %81

73:                                               ; preds = %63
  %74 = load ptr, ptr %10, align 8, !tbaa !13
  %75 = getelementptr inbounds nuw %struct.warc_s, ptr %74, i32 0, i32 0
  %76 = load i64, ptr %75, align 8, !tbaa !41
  %77 = load ptr, ptr %10, align 8, !tbaa !13
  %78 = getelementptr inbounds nuw %struct.warc_s, ptr %77, i32 0, i32 1
  %79 = load i64, ptr %78, align 8, !tbaa !42
  %80 = sub i64 %76, %79
  store i64 %80, ptr %12, align 8, !tbaa !17
  br label %81

81:                                               ; preds = %73, %63
  br label %82

82:                                               ; preds = %81
  br label %83

83:                                               ; preds = %82
  %84 = load ptr, ptr %10, align 8, !tbaa !13
  %85 = getelementptr inbounds nuw %struct.warc_s, ptr %84, i32 0, i32 1
  %86 = load i64, ptr %85, align 8, !tbaa !42
  %87 = load ptr, ptr %9, align 8, !tbaa !50
  store i64 %86, ptr %87, align 8, !tbaa !17
  %88 = load i64, ptr %12, align 8, !tbaa !17
  %89 = load ptr, ptr %8, align 8, !tbaa !50
  store i64 %88, ptr %89, align 8, !tbaa !17
  %90 = load ptr, ptr %11, align 8, !tbaa !15
  %91 = load ptr, ptr %7, align 8, !tbaa !49
  store ptr %90, ptr %91, align 8, !tbaa !49
  %92 = load i64, ptr %12, align 8, !tbaa !17
  %93 = load ptr, ptr %10, align 8, !tbaa !13
  %94 = getelementptr inbounds nuw %struct.warc_s, ptr %93, i32 0, i32 1
  %95 = load i64, ptr %94, align 8, !tbaa !42
  %96 = add i64 %95, %92
  store i64 %96, ptr %94, align 8, !tbaa !42
  %97 = load i64, ptr %12, align 8, !tbaa !17
  %98 = load ptr, ptr %10, align 8, !tbaa !13
  %99 = getelementptr inbounds nuw %struct.warc_s, ptr %98, i32 0, i32 2
  store i64 %97, ptr %99, align 8, !tbaa !52
  store i32 0, ptr %5, align 4
  store i32 1, ptr %13, align 4
  br label %100

100:                                              ; preds = %83, %55, %27
  call void @llvm.lifetime.end.p0(i64 8, ptr %12) #10
  call void @llvm.lifetime.end.p0(i64 8, ptr %11) #10
  call void @llvm.lifetime.end.p0(i64 8, ptr %10) #10
  %101 = load i32, ptr %5, align 4
  ret i32 %101
}