; Function Attrs: nounwind uwtable
define internal i32 @_warc_read(ptr noundef %0, ptr noundef writeonly captures(none) %1, ptr noundef writeonly captures(none) initializes((0, 8)) %2, ptr noundef writeonly captures(none) %3) #0 {
  %5 = alloca i64, align 8
  %6 = getelementptr inbounds nuw i8, ptr %0, i64 2072
  %7 = load ptr, ptr %6, align 8, !tbaa !8
  %8 = load ptr, ptr %7, align 8, !tbaa !26
  call void @llvm.lifetime.start.p0(i64 8, ptr nonnull %5) #16
  %9 = getelementptr inbounds nuw i8, ptr %8, i64 8
  %10 = load i64, ptr %9, align 8, !tbaa !45
  %11 = load i64, ptr %8, align 8, !tbaa !44
  %.not = icmp ult i64 %10, %11
  br i1 %.not, label %16, label %12

12:                                               ; preds = %27, %4
  store ptr null, ptr %1, align 8, !tbaa !51
  store i64 0, ptr %2, align 8, !tbaa !4
  %13 = load i64, ptr %9, align 8, !tbaa !45
  %14 = add i64 %13, 4
  store i64 %14, ptr %3, align 8, !tbaa !4
  %15 = getelementptr inbounds nuw i8, ptr %8, i64 16
  store i64 0, ptr %15, align 8, !tbaa !52
  br label %35

16:                                               ; preds = %4
  %17 = getelementptr inbounds nuw i8, ptr %8, i64 16
  %18 = load i64, ptr %17, align 8, !tbaa !52
  %.not28 = icmp eq i64 %18, 0
  br i1 %.not28, label %21, label %19

19:                                               ; preds = %16
  %20 = tail call i64 @__archive_read_consume(ptr noundef nonnull %0, i64 noundef %18) #16
  store i64 0, ptr %17, align 8, !tbaa !52
  br label %21

21:                                               ; preds = %19, %16
  %22 = call ptr @__archive_read_ahead(ptr noundef nonnull %0, i64 noundef 1, ptr noundef nonnull %5) #16
  %23 = load i64, ptr %5, align 8, !tbaa !4
  %24 = icmp slt i64 %23, 0
  br i1 %24, label %25, label %27

25:                                               ; preds = %21
  store i64 0, ptr %2, align 8, !tbaa !4
  %26 = trunc i64 %23 to i32
  br label %35

27:                                               ; preds = %21
  %28 = icmp eq i64 %23, 0
  br i1 %28, label %12, label %29

29:                                               ; preds = %27
  %30 = load i64, ptr %8, align 8, !tbaa !44
  %31 = load i64, ptr %9, align 8, !tbaa !45
  %32 = sub i64 %30, %31
  %spec.select = call i64 @llvm.umin.i64(i64 %23, i64 %32)
  store i64 %31, ptr %3, align 8, !tbaa !4
  store i64 %spec.select, ptr %2, align 8, !tbaa !4
  store ptr %22, ptr %1, align 8, !tbaa !51
  %33 = load i64, ptr %9, align 8, !tbaa !45
  %34 = add i64 %33, %spec.select
  store i64 %34, ptr %9, align 8, !tbaa !45
  store i64 %spec.select, ptr %17, align 8, !tbaa !52
  br label %35

35:                                               ; preds = %29, %25, %12
  %.0 = phi i32 [ 1, %12 ], [ %26, %25 ], [ 0, %29 ]
  call void @llvm.lifetime.end.p0(i64 8, ptr nonnull %5) #16
  ret i32 %.0
}